; Function Attrs: nounwind uwtable
define dso_local range(i32 -1, 12) i32 @PyRun_InteractiveOneObject(ptr noundef %0, ptr noundef %1, ptr noundef %2) local_unnamed_addr #0 {
  %4 = tail call fastcc i32 @PyRun_InteractiveOneObjectEx(ptr noundef %0, ptr noundef %1, ptr noundef %2)
  %5 = icmp eq i32 %4, -1
  br i1 %5, label %6, label %9

6:                                                ; preds = %3
  %7 = tail call align 8 ptr @llvm.threadlocal.address.p0(ptr align 8 @_Py_tss_tstate)
  %8 = load ptr, ptr %7, align 8, !tbaa !4
  tail call fastcc void @_PyErr_PrintEx(ptr noundef %8, i32 noundef 1)
  tail call fastcc void @flush_io()
  br label %9

9:                                                ; preds = %6, %3
  ret i32 %4
}